; ModuleID = '51/337.c'
source_filename = "51/337.c"
target datalayout = "e-m:e-p270:32:32-p271:32:32-p272:64:64-i64:64-f80:128-n8:16:32:64-S128"
target triple = "x86_64-pc-linux-gnu"

@.str = private unnamed_addr constant [4 x i8] c"%d\0A\00", align 1
@.str.1 = private unnamed_addr constant [2 x i8] zeroinitializer, align 1
@.str.2 = private unnamed_addr constant [3 x i8] c"NO\00", align 1
@.str.3 = private unnamed_addr constant [4 x i8] c"%s\0A\00", align 1

; Function Attrs: noinline nounwind uwtable
define dso_local i32 @main() #0 {
  %1 = alloca i32, align 4
  %2 = alloca i32, align 4
  %3 = alloca i32, align 4
  %4 = alloca i32, align 4
  %5 = alloca i32, align 4
  %6 = alloca i32, align 4
  %7 = alloca i32, align 4
  %8 = alloca [500 x i32], align 16
  %9 = alloca [502 x i8], align 16
  %10 = alloca [500 x [5 x i8]], align 16
  %11 = alloca [500 x [5 x i8]], align 16
  store i32 0, i32* %1, align 4
  store i32 1, i32* %6, align 4
  store i32 0, i32* %7, align 4
  %12 = bitcast [500 x i32]* %8 to i8*
  call void @llvm.memset.p0i8.i64(i8* align 16 %12, i8 0, i64 2000, i1 false)
  %13 = call i32 (i8*, ...) @__isoc99_scanf(i8* getelementptr inbounds ([4 x i8], [4 x i8]* @.str, i64 0, i64 0), i32* %2)
  %14 = getelementptr inbounds [502 x i8], [502 x i8]* %9, i64 0, i64 0
  %15 = call i32 (i8*, ...) bitcast (i32 (...)* @gets to i32 (i8*, ...)*)(i8* %14)
  store i32 0, i32* %3, align 4
  br label %16

16:                                               ; preds = %61, %0
  %17 = load i32, i32* %3, align 4
  %18 = sext i32 %17 to i64
  %19 = getelementptr inbounds [502 x i8], [502 x i8]* %9, i64 0, i64 0
  %20 = call i64 @strlen(i8* %19) #5
  %21 = load i32, i32* %2, align 4
  %22 = sext i32 %21 to i64
  %23 = sub i64 %20, %22
  %24 = add i64 %23, 1
  %25 = icmp ult i64 %18, %24
  br i1 %25, label %26, label %64

26:                                               ; preds = %16
  store i32 0, i32* %4, align 4
  br label %27

27:                                               ; preds = %57, %26
  %28 = load i32, i32* %4, align 4
  %29 = load i32, i32* %2, align 4
  %30 = add nsw i32 %29, 1
  %31 = icmp slt i32 %28, %30
  br i1 %31, label %32, label %60

32:                                               ; preds = %27
  %33 = load i32, i32* %4, align 4
  %34 = load i32, i32* %2, align 4
  %35 = icmp slt i32 %33, %34
  br i1 %35, label %36, label %49

36:                                               ; preds = %32
  %37 = load i32, i32* %3, align 4
  %38 = load i32, i32* %4, align 4
  %39 = add nsw i32 %37, %38
  %40 = sext i32 %39 to i64
  %41 = getelementptr inbounds [502 x i8], [502 x i8]* %9, i64 0, i64 %40
  %42 = load i8, i8* %41, align 1
  %43 = load i32, i32* %3, align 4
  %44 = sext i32 %43 to i64
  %45 = getelementptr inbounds [500 x [5 x i8]], [500 x [5 x i8]]* %10, i64 0, i64 %44
  %46 = load i32, i32* %4, align 4
  %47 = sext i32 %46 to i64
  %48 = getelementptr inbounds [5 x i8], [5 x i8]* %45, i64 0, i64 %47
  store i8 %42, i8* %48, align 1
  br label %56

49:                                               ; preds = %32
  %50 = load i32, i32* %3, align 4
  %51 = sext i32 %50 to i64
  %52 = getelementptr inbounds [500 x [5 x i8]], [500 x [5 x i8]]* %10, i64 0, i64 %51
  %53 = load i32, i32* %4, align 4
  %54 = sext i32 %53 to i64
  %55 = getelementptr inbounds [5 x i8], [5 x i8]* %52, i64 0, i64 %54
  store i8 0, i8* %55, align 1
  br label %56

56:                                               ; preds = %49, %36
  br label %57

57:                                               ; preds = %56
  %58 = load i32, i32* %4, align 4
  %59 = add nsw i32 %58, 1
  store i32 %59, i32* %4, align 4
  br label %27

60:                                               ; preds = %27
  br label %61

61:                                               ; preds = %60
  %62 = load i32, i32* %3, align 4
  %63 = add nsw i32 %62, 1
  store i32 %63, i32* %3, align 4
  br label %16

64:                                               ; preds = %16
  %65 = load i32, i32* %3, align 4
  %66 = sub nsw i32 %65, 1
  %67 = sext i32 %66 to i64
  %68 = getelementptr inbounds [500 x [5 x i8]], [500 x [5 x i8]]* %10, i64 0, i64 %67
  %69 = load i32, i32* %2, align 4
  %70 = sext i32 %69 to i64
  %71 = getelementptr inbounds [5 x i8], [5 x i8]* %68, i64 0, i64 %70
  store i8 0, i8* %71, align 1
  store i32 0, i32* %3, align 4
  br label %72

72:                                               ; preds = %169, %64
  %73 = load i32, i32* %3, align 4
  %74 = sext i32 %73 to i64
  %75 = getelementptr inbounds [502 x i8], [502 x i8]* %9, i64 0, i64 0
  %76 = call i64 @strlen(i8* %75) #5
  %77 = load i32, i32* %2, align 4
  %78 = sext i32 %77 to i64
  %79 = sub i64 %76, %78
  %80 = add i64 %79, 1
  %81 = icmp ult i64 %74, %80
  br i1 %81, label %82, label %172

82:                                               ; preds = %72
  %83 = load i32, i32* %3, align 4
  store i32 %83, i32* %4, align 4
  br label %84

84:                                               ; preds = %112, %82
  %85 = load i32, i32* %4, align 4
  %86 = sext i32 %85 to i64
  %87 = getelementptr inbounds [502 x i8], [502 x i8]* %9, i64 0, i64 0
  %88 = call i64 @strlen(i8* %87) #5
  %89 = load i32, i32* %2, align 4
  %90 = sext i32 %89 to i64
  %91 = sub i64 %88, %90
  %92 = add i64 %91, 1
  %93 = icmp ult i64 %86, %92
  br i1 %93, label %94, label %115

94:                                               ; preds = %84
  %95 = load i32, i32* %3, align 4
  %96 = sext i32 %95 to i64
  %97 = getelementptr inbounds [500 x [5 x i8]], [500 x [5 x i8]]* %10, i64 0, i64 %96
  %98 = getelementptr inbounds [5 x i8], [5 x i8]* %97, i64 0, i64 0
  %99 = load i32, i32* %4, align 4
  %100 = sext i32 %99 to i64
  %101 = getelementptr inbounds [500 x [5 x i8]], [500 x [5 x i8]]* %10, i64 0, i64 %100
  %102 = getelementptr inbounds [5 x i8], [5 x i8]* %101, i64 0, i64 0
  %103 = call i32 @strcmp(i8* %98, i8* %102) #5
  %104 = icmp eq i32 %103, 0
  br i1 %104, label %105, label %111

105:                                              ; preds = %94
  %106 = load i32, i32* %3, align 4
  %107 = sext i32 %106 to i64
  %108 = getelementptr inbounds [500 x i32], [500 x i32]* %8, i64 0, i64 %107
  %109 = load i32, i32* %108, align 4
  %110 = add nsw i32 %109, 1
  store i32 %110, i32* %108, align 4
  br label %111

111:                                              ; preds = %105, %94
  br label %112

112:                                              ; preds = %111
  %113 = load i32, i32* %4, align 4
  %114 = add nsw i32 %113, 1
  store i32 %114, i32* %4, align 4
  br label %84

115:                                              ; preds = %84
  %116 = load i32, i32* %3, align 4
  %117 = sext i32 %116 to i64
  %118 = getelementptr inbounds [500 x i32], [500 x i32]* %8, i64 0, i64 %117
  %119 = load i32, i32* %118, align 4
  %120 = load i32, i32* %6, align 4
  %121 = icmp sgt i32 %119, %120
  br i1 %121, label %122, label %148

122:                                              ; preds = %115
  store i32 0, i32* %5, align 4
  br label %123

123:                                              ; preds = %133, %122
  %124 = load i32, i32* %5, align 4
  %125 = load i32, i32* %7, align 4
  %126 = icmp slt i32 %124, %125
  br i1 %126, label %127, label %136

127:                                              ; preds = %123
  %128 = load i32, i32* %5, align 4
  %129 = sext i32 %128 to i64
  %130 = getelementptr inbounds [500 x [5 x i8]], [500 x [5 x i8]]* %11, i64 0, i64 %129
  %131 = getelementptr inbounds [5 x i8], [5 x i8]* %130, i64 0, i64 0
  %132 = call i8* @strcpy(i8* %131, i8* getelementptr inbounds ([2 x i8], [2 x i8]* @.str.1, i64 0, i64 0)) #6
  br label %133

133:                                              ; preds = %127
  %134 = load i32, i32* %5, align 4
  %135 = add nsw i32 %134, 1
  store i32 %135, i32* %5, align 4
  br label %123

136:                                              ; preds = %123
  %137 = getelementptr inbounds [500 x [5 x i8]], [500 x [5 x i8]]* %11, i64 0, i64 0
  %138 = getelementptr inbounds [5 x i8], [5 x i8]* %137, i64 0, i64 0
  %139 = load i32, i32* %3, align 4
  %140 = sext i32 %139 to i64
  %141 = getelementptr inbounds [500 x [5 x i8]], [500 x [5 x i8]]* %10, i64 0, i64 %140
  %142 = getelementptr inbounds [5 x i8], [5 x i8]* %141, i64 0, i64 0
  %143 = call i8* @strcpy(i8* %138, i8* %142) #6
  store i32 1, i32* %7, align 4
  %144 = load i32, i32* %3, align 4
  %145 = sext i32 %144 to i64
  %146 = getelementptr inbounds [500 x i32], [500 x i32]* %8, i64 0, i64 %145
  %147 = load i32, i32* %146, align 4
  store i32 %147, i32* %6, align 4
  br label %168

148:                                              ; preds = %115
  %149 = load i32, i32* %3, align 4
  %150 = sext i32 %149 to i64
  %151 = getelementptr inbounds [500 x i32], [500 x i32]* %8, i64 0, i64 %150
  %152 = load i32, i32* %151, align 4
  %153 = load i32, i32* %6, align 4
  %154 = icmp eq i32 %152, %153
  br i1 %154, label %155, label %167

155:                                              ; preds = %148
  %156 = load i32, i32* %7, align 4
  %157 = sext i32 %156 to i64
  %158 = getelementptr inbounds [500 x [5 x i8]], [500 x [5 x i8]]* %11, i64 0, i64 %157
  %159 = getelementptr inbounds [5 x i8], [5 x i8]* %158, i64 0, i64 0
  %160 = load i32, i32* %3, align 4
  %161 = sext i32 %160 to i64
  %162 = getelementptr inbounds [500 x [5 x i8]], [500 x [5 x i8]]* %10, i64 0, i64 %161
  %163 = getelementptr inbounds [5 x i8], [5 x i8]* %162, i64 0, i64 0
  %164 = call i8* @strcpy(i8* %159, i8* %163) #6
  %165 = load i32, i32* %7, align 4
  %166 = add nsw i32 %165, 1
  store i32 %166, i32* %7, align 4
  br label %167

167:                                              ; preds = %155, %148
  br label %168

168:                                              ; preds = %167, %136
  br label %169

169:                                              ; preds = %168
  %170 = load i32, i32* %3, align 4
  %171 = add nsw i32 %170, 1
  store i32 %171, i32* %3, align 4
  br label %72

172:                                              ; preds = %72
  %173 = load i32, i32* %6, align 4
  %174 = icmp eq i32 %173, 1
  br i1 %174, label %175, label %177

175:                                              ; preds = %172
  %176 = call i32 (i8*, ...) @printf(i8* getelementptr inbounds ([3 x i8], [3 x i8]* @.str.2, i64 0, i64 0))
  br label %194

177:                                              ; preds = %172
  %178 = load i32, i32* %6, align 4
  %179 = call i32 (i8*, ...) @printf(i8* getelementptr inbounds ([4 x i8], [4 x i8]* @.str, i64 0, i64 0), i32 %178)
  store i32 0, i32* %3, align 4
  br label %180

180:                                              ; preds = %190, %177
  %181 = load i32, i32* %3, align 4
  %182 = load i32, i32* %7, align 4
  %183 = icmp slt i32 %181, %182
  br i1 %183, label %184, label %193

184:                                              ; preds = %180
  %185 = load i32, i32* %3, align 4
  %186 = sext i32 %185 to i64
  %187 = getelementptr inbounds [500 x [5 x i8]], [500 x [5 x i8]]* %11, i64 0, i64 %186
  %188 = getelementptr inbounds [5 x i8], [5 x i8]* %187, i64 0, i64 0
  %189 = call i32 (i8*, ...) @printf(i8* getelementptr inbounds ([4 x i8], [4 x i8]* @.str.3, i64 0, i64 0), i8* %188)
  br label %190

190:                                              ; preds = %184
  %191 = load i32, i32* %3, align 4
  %192 = add nsw i32 %191, 1
  store i32 %192, i32* %3, align 4
  br label %180

193:                                              ; preds = %180
  br label %194

194:                                              ; preds = %193, %175
  ret i32 0
}

; Function Attrs: argmemonly nounwind willreturn
declare void @llvm.memset.p0i8.i64(i8* nocapture writeonly, i8, i64, i1 immarg) #1

declare dso_local i32 @__isoc99_scanf(i8*, ...) #2

declare dso_local i32 @gets(...) #2

; Function Attrs: nounwind readonly
declare dso_local i64 @strlen(i8*) #3

; Function Attrs: nounwind readonly
declare dso_local i32 @strcmp(i8*, i8*) #3

; Function Attrs: nounwind
declare dso_local i8* @strcpy(i8*, i8*) #4

declare dso_local i32 @printf(i8*, ...) #2


!llvm.module.flags = !{!0}
!llvm.ident = !{!1}

!0 = !{i32 1, !"wchar_size", i32 4}
!1 = !{!"clang version 10.0.0-4ubuntu1 "}
